; ModuleID = '24/1641.c'
source_filename = "24/1641.c"
target datalayout = "e-m:e-p270:32:32-p271:32:32-p272:64:64-i64:64-f80:128-n8:16:32:64-S128"
target triple = "x86_64-pc-linux-gnu"

@.str = private unnamed_addr constant [6 x i8] c"%s\0A%s\00", align 1

; Function Attrs: noinline nounwind uwtable
define dso_local i32 @main() #0 {
  %1 = alloca i32, align 4
  %2 = alloca [1000 x i8], align 16
  %3 = alloca [300 x i8*], align 16
  %4 = alloca i8*, align 8
  %5 = alloca i8*, align 8
  %6 = alloca i32, align 4
  %7 = alloca i32, align 4
  %8 = alloca i32, align 4
  store i32 0, i32* %1, align 4
  store i32 0, i32* %7, align 4
  %9 = getelementptr inbounds [1000 x i8], [1000 x i8]* %2, i64 0, i64 0
  %10 = call i32 (i8*, ...) bitcast (i32 (...)* @gets to i32 (i8*, ...)*)(i8* %9)
  %11 = getelementptr inbounds [1000 x i8], [1000 x i8]* %2, i64 0, i64 0
  %12 = getelementptr inbounds [300 x i8*], [300 x i8*]* %3, i64 0, i64 0
  store i8* %11, i8** %12, align 16
  %13 = load i32, i32* %7, align 4
  %14 = add nsw i32 %13, 1
  store i32 %14, i32* %7, align 4
  store i32 0, i32* %6, align 4
  br label %15

15:                                               ; preds = %44, %0
  %16 = load i32, i32* %6, align 4
  %17 = sext i32 %16 to i64
  %18 = getelementptr inbounds [1000 x i8], [1000 x i8]* %2, i64 0, i64 %17
  %19 = load i8, i8* %18, align 1
  %20 = sext i8 %19 to i32
  %21 = icmp ne i32 %20, 0
  br i1 %21, label %22, label %47

22:                                               ; preds = %15
  %23 = load i32, i32* %6, align 4
  %24 = sext i32 %23 to i64
  %25 = getelementptr inbounds [1000 x i8], [1000 x i8]* %2, i64 0, i64 %24
  %26 = load i8, i8* %25, align 1
  %27 = sext i8 %26 to i32
  %28 = icmp eq i32 %27, 32
  br i1 %28, label %29, label %43

29:                                               ; preds = %22
  %30 = load i32, i32* %6, align 4
  %31 = sext i32 %30 to i64
  %32 = getelementptr inbounds [1000 x i8], [1000 x i8]* %2, i64 0, i64 %31
  store i8 0, i8* %32, align 1
  %33 = getelementptr inbounds [1000 x i8], [1000 x i8]* %2, i64 0, i64 0
  %34 = load i32, i32* %6, align 4
  %35 = sext i32 %34 to i64
  %36 = getelementptr inbounds i8, i8* %33, i64 %35
  %37 = getelementptr inbounds i8, i8* %36, i64 1
  %38 = load i32, i32* %7, align 4
  %39 = sext i32 %38 to i64
  %40 = getelementptr inbounds [300 x i8*], [300 x i8*]* %3, i64 0, i64 %39
  store i8* %37, i8** %40, align 8
  %41 = load i32, i32* %7, align 4
  %42 = add nsw i32 %41, 1
  store i32 %42, i32* %7, align 4
  br label %43

43:                                               ; preds = %29, %22
  br label %44

44:                                               ; preds = %43
  %45 = load i32, i32* %6, align 4
  %46 = add nsw i32 %45, 1
  store i32 %46, i32* %6, align 4
  br label %15

47:                                               ; preds = %15
  %48 = getelementptr inbounds [300 x i8*], [300 x i8*]* %3, i64 0, i64 0
  %49 = load i8*, i8** %48, align 16
  store i8* %49, i8** %4, align 8
  %50 = getelementptr inbounds [300 x i8*], [300 x i8*]* %3, i64 0, i64 0
  %51 = load i8*, i8** %50, align 16
  store i8* %51, i8** %5, align 8
  store i32 0, i32* %8, align 4
  br label %52

52:                                               ; preds = %85, %47
  %53 = load i32, i32* %8, align 4
  %54 = load i32, i32* %7, align 4
  %55 = icmp slt i32 %53, %54
  br i1 %55, label %56, label %88

56:                                               ; preds = %52
  %57 = load i32, i32* %8, align 4
  %58 = sext i32 %57 to i64
  %59 = getelementptr inbounds [300 x i8*], [300 x i8*]* %3, i64 0, i64 %58
  %60 = load i8*, i8** %59, align 8
  %61 = call i64 @strlen(i8* %60) #3
  %62 = load i8*, i8** %4, align 8
  %63 = call i64 @strlen(i8* %62) #3
  %64 = icmp ugt i64 %61, %63
  br i1 %64, label %65, label %70

65:                                               ; preds = %56
  %66 = load i32, i32* %8, align 4
  %67 = sext i32 %66 to i64
  %68 = getelementptr inbounds [300 x i8*], [300 x i8*]* %3, i64 0, i64 %67
  %69 = load i8*, i8** %68, align 8
  store i8* %69, i8** %4, align 8
  br label %70

70:                                               ; preds = %65, %56
  %71 = load i32, i32* %8, align 4
  %72 = sext i32 %71 to i64
  %73 = getelementptr inbounds [300 x i8*], [300 x i8*]* %3, i64 0, i64 %72
  %74 = load i8*, i8** %73, align 8
  %75 = call i64 @strlen(i8* %74) #3
  %76 = load i8*, i8** %5, align 8
  %77 = call i64 @strlen(i8* %76) #3
  %78 = icmp ult i64 %75, %77
  br i1 %78, label %79, label %84

79:                                               ; preds = %70
  %80 = load i32, i32* %8, align 4
  %81 = sext i32 %80 to i64
  %82 = getelementptr inbounds [300 x i8*], [300 x i8*]* %3, i64 0, i64 %81
  %83 = load i8*, i8** %82, align 8
  store i8* %83, i8** %5, align 8
  br label %84

84:                                               ; preds = %79, %70
  br label %85

85:                                               ; preds = %84
  %86 = load i32, i32* %8, align 4
  %87 = add nsw i32 %86, 1
  store i32 %87, i32* %8, align 4
  br label %52

88:                                               ; preds = %52
  %89 = load i8*, i8** %4, align 8
  %90 = load i8*, i8** %5, align 8
  %91 = call i32 (i8*, ...) @printf(i8* getelementptr inbounds ([6 x i8], [6 x i8]* @.str, i64 0, i64 0), i8* %89, i8* %90)
  ret i32 0
}

declare dso_local i32 @gets(...) #1

; Function Attrs: nounwind readonly
declare dso_local i64 @strlen(i8*) #2

declare dso_local i32 @printf(i8*, ...) #1


!llvm.module.flags = !{!0}
!llvm.ident = !{!1}

!0 = !{i32 1, !"wchar_size", i32 4}
!1 = !{!"clang version 10.0.0-4ubuntu1 "}
